target datalayout = "e-m:e-p270:32:32-p271:32:32-p272:64:64-i64:64-i128:128-f80:128-n8:16:32:64-S128"
target triple = "x86_64-pc-linux-gnu"

%struct.H5O_token_t = type { [16 x i8] }
%struct.H5O_info2_t = type { i64, %struct.H5O_token_t, i32, i32, i64, i64, i64, i64, i64 }
%struct.trav_print_udata_t = type { i64 }
%struct.trav_path_op_data_t = type { ptr }

@trav_index_by = internal global i32 0, align 4
@trav_index_order = internal global i32 0, align 4
@trav_verbosity = internal global i32 0, align 4
@.str.4 = private unnamed_addr constant [2 x i8] c"\0A\00", align 1
@.str.13 = private unnamed_addr constant [10 x i8] c" %-10s %s\00", align 1
@.str.14 = private unnamed_addr constant [6 x i8] c"group\00", align 1
@.str.15 = private unnamed_addr constant [8 x i8] c"dataset\00", align 1
@.str.16 = private unnamed_addr constant [9 x i8] c"datatype\00", align 1
@.str.17 = private unnamed_addr constant [20 x i8] c"unknown object type\00", align 1
@.str.18 = private unnamed_addr constant [8 x i8] c" -> %s\0A\00", align 1

; Function Attrs: nounwind uwtable
define internal i32 @trav_print_visit_obj(ptr noundef %0, ptr noundef %1, ptr noundef %2, ptr noundef %3) #0 {
  %5 = alloca ptr, align 8
  %6 = alloca ptr, align 8
  %7 = alloca ptr, align 8
  %8 = alloca ptr, align 8
  %9 = alloca ptr, align 8
  %10 = alloca %struct.trav_path_op_data_t, align 8
  store ptr %0, ptr %5, align 8, !tbaa !10
  store ptr %1, ptr %6, align 8, !tbaa !34
  store ptr %2, ptr %7, align 8, !tbaa !10
  store ptr %3, ptr %8, align 8, !tbaa !36
  call void @llvm.lifetime.start.p0(i64 8, ptr %9) #10
  %11 = load ptr, ptr %8, align 8, !tbaa !36
  store ptr %11, ptr %9, align 8, !tbaa !36
  %12 = load ptr, ptr %6, align 8, !tbaa !34
  %13 = getelementptr inbounds nuw %struct.H5O_info2_t, ptr %12, i32 0, i32 2
  %14 = load i32, ptr %13, align 8, !tbaa !37
  switch i32 %14, label %25 [
    i32 0, label %15
    i32 1, label %18
    i32 2, label %21
    i32 3, label %24
    i32 -1, label %24
    i32 4, label %24
  ]

15:                                               ; preds = %4
  %16 = load ptr, ptr %5, align 8, !tbaa !10
  %17 = call i32 (ptr, ...) @printf(ptr noundef @.str.13, ptr noundef @.str.14, ptr noundef %16)
  br label %28

18:                                               ; preds = %4
  %19 = load ptr, ptr %5, align 8, !tbaa !10
  %20 = call i32 (ptr, ...) @printf(ptr noundef @.str.13, ptr noundef @.str.15, ptr noundef %19)
  br label %28

21:                                               ; preds = %4
  %22 = load ptr, ptr %5, align 8, !tbaa !10
  %23 = call i32 (ptr, ...) @printf(ptr noundef @.str.13, ptr noundef @.str.16, ptr noundef %22)
  br label %28

24:                                               ; preds = %4, %4, %4
  br label %25

25:                                               ; preds = %4, %24
  %26 = load ptr, ptr %5, align 8, !tbaa !10
  %27 = call i32 (ptr, ...) @printf(ptr noundef @.str.13, ptr noundef @.str.17, ptr noundef %26)
  br label %28

28:                                               ; preds = %25, %21, %18, %15
  %29 = load ptr, ptr %7, align 8, !tbaa !10
  %30 = icmp eq ptr null, %29
  br i1 %30, label %31, label %46

31:                                               ; preds = %28
  call void @llvm.lifetime.start.p0(i64 8, ptr %10) #10
  %32 = load ptr, ptr %5, align 8, !tbaa !10
  %33 = getelementptr inbounds nuw %struct.trav_path_op_data_t, ptr %10, i32 0, i32 0
  store ptr %32, ptr %33, align 8, !tbaa !105
  %34 = call i32 (ptr, ...) @printf(ptr noundef @.str.4)
  %35 = load i32, ptr @trav_verbosity, align 4, !tbaa !3
  %36 = icmp sgt i32 %35, 0
  br i1 %36, label %37, label %45

37:                                               ; preds = %31
  %38 = load ptr, ptr %9, align 8, !tbaa !36
  %39 = getelementptr inbounds nuw %struct.trav_print_udata_t, ptr %38, i32 0, i32 0
  %40 = load i64, ptr %39, align 8, !tbaa !103
  %41 = load ptr, ptr %5, align 8, !tbaa !10
  %42 = load i32, ptr @trav_index_by, align 4, !tbaa !3
  %43 = load i32, ptr @trav_index_order, align 4, !tbaa !3
  %44 = call i32 @H5Aiterate_by_name(i64 noundef %40, ptr noundef %41, i32 noundef %42, i32 noundef %43, ptr noundef null, ptr noundef @trav_attr, ptr noundef %10, i64 noundef 0)
  br label %45

45:                                               ; preds = %37, %31
  call void @llvm.lifetime.end.p0(i64 8, ptr %10) #10
  br label %49

46:                                               ; preds = %28
  %47 = load ptr, ptr %7, align 8, !tbaa !10
  %48 = call i32 (ptr, ...) @printf(ptr noundef @.str.18, ptr noundef %47)
  br label %49

49:                                               ; preds = %46, %45
  call void @llvm.lifetime.end.p0(i64 8, ptr %9) #10
  ret i32 0
}