; Function Attrs: nounwind uwtable
define internal noundef i32 @trav_print_visit_obj(ptr noundef %0, ptr noundef readonly captures(none) %1, ptr noundef %2, ptr noundef readonly captures(none) %3) #1 {
  %5 = alloca %struct.trav_path_op_data_t, align 8
  %6 = getelementptr inbounds nuw i8, ptr %1, i64 24
  %7 = load i32, ptr %6, align 8, !tbaa !31
  %8 = icmp ult i32 %7, 3
  br i1 %8, label %switch.lookup, label %10

switch.lookup:                                    ; preds = %4
  %9 = zext nneg i32 %7 to i64
  %switch.gep = getelementptr inbounds nuw [3 x ptr], ptr @switch.table.trav_print_visit_obj, i64 0, i64 %9
  %switch.load = load ptr, ptr %switch.gep, align 8
  br label %10

10:                                               ; preds = %4, %switch.lookup
  %.str.17.sink = phi ptr [ %switch.load, %switch.lookup ], [ @.str.17, %4 ]
  %11 = tail call i32 (ptr, ...) @printf(ptr noundef nonnull dereferenceable(1) @.str.13, ptr noundef nonnull %.str.17.sink, ptr noundef %0)
  %12 = icmp eq ptr %2, null
  br i1 %12, label %13, label %22

13:                                               ; preds = %10
  call void @llvm.lifetime.start.p0(i64 8, ptr nonnull %5) #18
  store ptr %0, ptr %5, align 8, !tbaa !95
  %putchar = tail call i32 @putchar(i32 10)
  %14 = load i32, ptr @trav_verbosity, align 4, !tbaa !3
  %15 = icmp sgt i32 %14, 0
  br i1 %15, label %16, label %21

16:                                               ; preds = %13
  %17 = load i64, ptr %3, align 8, !tbaa !93
  %18 = load i32, ptr @trav_index_by, align 4, !tbaa !3
  %19 = load i32, ptr @trav_index_order, align 4, !tbaa !3
  %20 = call i32 @H5Aiterate_by_name(i64 noundef %17, ptr noundef %0, i32 noundef %18, i32 noundef %19, ptr noundef null, ptr noundef nonnull @trav_attr, ptr noundef nonnull %5, i64 noundef 0) #18
  br label %21

21:                                               ; preds = %16, %13
  call void @llvm.lifetime.end.p0(i64 8, ptr nonnull %5) #18
  br label %24

22:                                               ; preds = %10
  %23 = tail call i32 (ptr, ...) @printf(ptr noundef nonnull dereferenceable(1) @.str.18, ptr noundef nonnull %2)
  br label %24

24:                                               ; preds = %22, %21
  ret i32 0
}